; ModuleID = 'source-C-CXX/28/915.c'
source_filename = "source-C-CXX/28/915.c"
target datalayout = "e-m:e-p270:32:32-p271:32:32-p272:64:64-i64:64-f80:128-n8:16:32:64-S128"
target triple = "x86_64-pc-linux-gnu"

@.str = private unnamed_addr constant [3 x i8] c"%d\00", align 1
@.str.1 = private unnamed_addr constant [7 x i8] c"%.3lf\0A\00", align 1

; Function Attrs: nofree nounwind sspstrong uwtable
define dso_local i32 @main() local_unnamed_addr #0 {
  %1 = alloca i32, align 4
  %2 = alloca [1000 x i32], align 16
  %3 = bitcast i32* %1 to i8*
  call void @llvm.lifetime.start.p0i8(i64 4, i8* nonnull %3) #3
  %4 = bitcast [1000 x i32]* %2 to i8*
  call void @llvm.lifetime.start.p0i8(i64 4000, i8* nonnull %4) #3
  %5 = call i32 (i8*, ...) @__isoc99_scanf(i8* getelementptr inbounds ([3 x i8], [3 x i8]* @.str, i64 0, i64 0), i32* nonnull %1)
  %6 = load i32, i32* %1, align 4, !tbaa !5
  %7 = icmp sgt i32 %6, 0
  br i1 %7, label %10, label %60

8:                                                ; preds = %10
  %9 = icmp sgt i32 %15, 0
  br i1 %9, label %18, label %60

10:                                               ; preds = %0, %10
  %11 = phi i64 [ %14, %10 ], [ 0, %0 ]
  %12 = getelementptr inbounds [1000 x i32], [1000 x i32]* %2, i64 0, i64 %11
  %13 = call i32 (i8*, ...) @__isoc99_scanf(i8* getelementptr inbounds ([3 x i8], [3 x i8]* @.str, i64 0, i64 0), i32* nonnull %12)
  %14 = add nuw nsw i64 %11, 1
  %15 = load i32, i32* %1, align 4, !tbaa !5
  %16 = sext i32 %15 to i64
  %17 = icmp slt i64 %14, %16
  br i1 %17, label %10, label %8, !llvm.loop !9

18:                                               ; preds = %8, %53
  %19 = phi i64 [ %56, %53 ], [ 0, %8 ]
  %20 = phi double [ %54, %53 ], [ undef, %8 ]
  %21 = getelementptr inbounds [1000 x i32], [1000 x i32]* %2, i64 0, i64 %19
  %22 = load i32, i32* %21, align 4, !tbaa !5
  %23 = icmp slt i32 %22, 1
  br i1 %23, label %53, label %24

24:                                               ; preds = %18
  %25 = icmp eq i32 %22, 1
  br i1 %25, label %53, label %26

26:                                               ; preds = %24
  %27 = add i32 %22, -1
  %28 = and i32 %27, 1
  %29 = icmp eq i32 %22, 2
  br i1 %29, label %44, label %30

30:                                               ; preds = %26
  %31 = and i32 %27, -2
  br label %32

32:                                               ; preds = %32, %30
  %33 = phi double [ 2.000000e+00, %30 ], [ %40, %32 ]
  %34 = phi double [ 2.000000e+00, %30 ], [ %41, %32 ]
  %35 = phi i32 [ %31, %30 ], [ %42, %32 ]
  %36 = fdiv double 1.000000e+00, %33
  %37 = fadd double %36, 1.000000e+00
  %38 = fadd double %34, %37
  %39 = fdiv double 1.000000e+00, %37
  %40 = fadd double %39, 1.000000e+00
  %41 = fadd double %38, %40
  %42 = add i32 %35, -2
  %43 = icmp eq i32 %42, 0
  br i1 %43, label %44, label %32, !llvm.loop !11

44:                                               ; preds = %32, %26
  %45 = phi double [ undef, %26 ], [ %41, %32 ]
  %46 = phi double [ 2.000000e+00, %26 ], [ %40, %32 ]
  %47 = phi double [ 2.000000e+00, %26 ], [ %41, %32 ]
  %48 = icmp eq i32 %28, 0
  br i1 %48, label %53, label %49

49:                                               ; preds = %44
  %50 = fdiv double 1.000000e+00, %46
  %51 = fadd double %50, 1.000000e+00
  %52 = fadd double %47, %51
  br label %53

53:                                               ; preds = %49, %44, %24, %18
  %54 = phi double [ %20, %18 ], [ 2.000000e+00, %24 ], [ %45, %44 ], [ %52, %49 ]
  %55 = call i32 (i8*, ...) @printf(i8* nonnull dereferenceable(1) getelementptr inbounds ([7 x i8], [7 x i8]* @.str.1, i64 0, i64 0), double %54)
  %56 = add nuw nsw i64 %19, 1
  %57 = load i32, i32* %1, align 4, !tbaa !5
  %58 = sext i32 %57 to i64
  %59 = icmp slt i64 %56, %58
  br i1 %59, label %18, label %60, !llvm.loop !13

60:                                               ; preds = %53, %0, %8
  call void @llvm.lifetime.end.p0i8(i64 4000, i8* nonnull %4) #3
  call void @llvm.lifetime.end.p0i8(i64 4, i8* nonnull %3) #3
  ret i32 0
}

; Function Attrs: argmemonly mustprogress nofree nosync nounwind willreturn
declare void @llvm.lifetime.start.p0i8(i64 immarg, i8* nocapture) #1

; Function Attrs: nofree nounwind
declare noundef i32 @__isoc99_scanf(i8* nocapture noundef readonly, ...) local_unnamed_addr #2

; Function Attrs: nofree nounwind
declare noundef i32 @printf(i8* nocapture noundef readonly, ...) local_unnamed_addr #2

; Function Attrs: argmemonly mustprogress nofree nosync nounwind willreturn
declare void @llvm.lifetime.end.p0i8(i64 immarg, i8* nocapture) #1


!llvm.module.flags = !{!0, !1, !2, !3}
!llvm.ident = !{!4}

!0 = !{i32 1, !"wchar_size", i32 4}
!1 = !{i32 7, !"PIC Level", i32 2}
!2 = !{i32 7, !"PIE Level", i32 2}
!3 = !{i32 7, !"uwtable", i32 1}
!4 = !{!"clang version 13.0.0"}
!5 = !{!6, !6, i64 0}
!6 = !{!"int", !7, i64 0}
!7 = !{!"omnipotent char", !8, i64 0}
!8 = !{!"Simple C/C++ TBAA"}
!9 = distinct !{!9, !10}
!10 = !{!"llvm.loop.mustprogress"}
!11 = distinct !{!11, !10, !12}
!12 = !{!"llvm.loop.peeled.count", i32 1}
!13 = distinct !{!13, !10}
